target datalayout = "e-m:e-p270:32:32-p271:32:32-p272:64:64-i64:64-i128:128-f80:128-n8:16:32:64-S128"
target triple = "x86_64-pc-linux-gnu"

%"struct.std::atomic" = type { %"struct.std::__atomic_base" }
%"struct.std::__atomic_base" = type { i64 }
%"struct.Stockfish::(anonymous namespace)::DebugInfo.0" = type { [3 x %"struct.std::atomic"] }

@_ZN9Stockfish12_GLOBAL__N_15stdevE = internal global [32 x %"struct.Stockfish::(anonymous namespace)::DebugInfo.0"] zeroinitializer, align 16

; Function Attrs: mustprogress nounwind uwtable
define linkonce_odr dso_local noundef i64 @_ZNSt13__atomic_baseIlEpLEl(ptr noundef nonnull align 8 dereferenceable(8) %0, i64 noundef %1) #4 comdat align 2 {
  %3 = alloca ptr, align 8
  %4 = alloca i64, align 8
  %5 = alloca i64, align 8
  %6 = alloca i64, align 8
  store ptr %0, ptr %3, align 8
  store i64 %1, ptr %4, align 8
  %7 = load ptr, ptr %3, align 8
  %8 = getelementptr inbounds %"struct.std::__atomic_base", ptr %7, i32 0, i32 0
  %9 = load i64, ptr %4, align 8
  store i64 %9, ptr %5, align 8
  %10 = load i64, ptr %5, align 8
  %11 = atomicrmw add ptr %8, i64 %10 seq_cst, align 8
  %12 = add i64 %11, %10
  store i64 %12, ptr %6, align 8
  %13 = load i64, ptr %6, align 8
  ret i64 %13
}

; Function Attrs: mustprogress nounwind uwtable
define linkonce_odr dso_local noundef i64 @_ZNSt13__atomic_baseIlEppEv(ptr noundef nonnull align 8 dereferenceable(8) %0) #4 comdat align 2 {
  %2 = alloca ptr, align 8
  %3 = alloca i64, align 8
  %4 = alloca i64, align 8
  store ptr %0, ptr %2, align 8
  %5 = load ptr, ptr %2, align 8
  %6 = getelementptr inbounds %"struct.std::__atomic_base", ptr %5, i32 0, i32 0
  store i64 1, ptr %3, align 8
  %7 = load i64, ptr %3, align 8
  %8 = atomicrmw add ptr %6, i64 %7 seq_cst, align 8
  %9 = add i64 %8, %7
  store i64 %9, ptr %4, align 8
  %10 = load i64, ptr %4, align 8
  ret i64 %10
}

; Function Attrs: mustprogress nounwind uwtable
define internal noundef nonnull align 8 dereferenceable(8) ptr @_ZN9Stockfish12_GLOBAL__N_19DebugInfoILm3EEixEi(ptr noundef nonnull align 8 dereferenceable(24) %0, i32 noundef %1) #4 align 2 {
  %3 = alloca ptr, align 8
  %4 = alloca i32, align 4
  store ptr %0, ptr %3, align 8
  store i32 %1, ptr %4, align 4
  %5 = load ptr, ptr %3, align 8
  %6 = getelementptr inbounds %"struct.Stockfish::(anonymous namespace)::DebugInfo.0", ptr %5, i32 0, i32 0
  %7 = load i32, ptr %4, align 4
  %8 = sext i32 %7 to i64
  %9 = getelementptr inbounds [3 x %"struct.std::atomic"], ptr %6, i64 0, i64 %8
  ret ptr %9
}

; Function Attrs: mustprogress nounwind uwtable
define dso_local void @_ZN9Stockfish12dbg_stdev_ofEli(i64 noundef %0, i32 noundef %1) #4 {
  %3 = alloca i64, align 8
  %4 = alloca i32, align 4
  store i64 %0, ptr %3, align 8
  store i32 %1, ptr %4, align 4
  %5 = load i32, ptr %4, align 4
  %6 = sext i32 %5 to i64
  %7 = getelementptr inbounds [32 x %"struct.Stockfish::(anonymous namespace)::DebugInfo.0"], ptr @_ZN9Stockfish12_GLOBAL__N_15stdevE, i64 0, i64 %6
  %8 = call noundef nonnull align 8 dereferenceable(8) ptr @_ZN9Stockfish12_GLOBAL__N_19DebugInfoILm3EEixEi(ptr noundef nonnull align 8 dereferenceable(24) %7, i32 noundef 0)
  %9 = call noundef i64 @_ZNSt13__atomic_baseIlEppEv(ptr noundef nonnull align 8 dereferenceable(8) %8) #3
  %10 = load i64, ptr %3, align 8
  %11 = load i32, ptr %4, align 4
  %12 = sext i32 %11 to i64
  %13 = getelementptr inbounds [32 x %"struct.Stockfish::(anonymous namespace)::DebugInfo.0"], ptr @_ZN9Stockfish12_GLOBAL__N_15stdevE, i64 0, i64 %12
  %14 = call noundef nonnull align 8 dereferenceable(8) ptr @_ZN9Stockfish12_GLOBAL__N_19DebugInfoILm3EEixEi(ptr noundef nonnull align 8 dereferenceable(24) %13, i32 noundef 1)
  %15 = call noundef i64 @_ZNSt13__atomic_baseIlEpLEl(ptr noundef nonnull align 8 dereferenceable(8) %14, i64 noundef %10) #3
  %16 = load i64, ptr %3, align 8
  %17 = load i64, ptr %3, align 8
  %18 = mul nsw i64 %16, %17
  %19 = load i32, ptr %4, align 4
  %20 = sext i32 %19 to i64
  %21 = getelementptr inbounds [32 x %"struct.Stockfish::(anonymous namespace)::DebugInfo.0"], ptr @_ZN9Stockfish12_GLOBAL__N_15stdevE, i64 0, i64 %20
  %22 = call noundef nonnull align 8 dereferenceable(8) ptr @_ZN9Stockfish12_GLOBAL__N_19DebugInfoILm3EEixEi(ptr noundef nonnull align 8 dereferenceable(24) %21, i32 noundef 2)
  %23 = call noundef i64 @_ZNSt13__atomic_baseIlEpLEl(ptr noundef nonnull align 8 dereferenceable(8) %22, i64 noundef %18) #3
  ret void
}