; Function Attrs: mustprogress nofree norecurse nounwind willreturn memory(readwrite, argmem: none, inaccessiblemem: none) uwtable
define dso_local void @_ZN9Stockfish12dbg_stdev_ofEli(i64 noundef %0, i32 noundef %1) local_unnamed_addr #4 {
  %3 = sext i32 %1 to i64
  %4 = getelementptr inbounds [32 x %"struct.Stockfish::(anonymous namespace)::DebugInfo.0"], ptr @_ZN9Stockfish12_GLOBAL__N_15stdevE, i64 0, i64 %3
  %5 = atomicrmw add ptr %4, i64 1 seq_cst, align 8
  %6 = getelementptr inbounds i8, ptr %4, i64 8
  %7 = atomicrmw add ptr %6, i64 %0 seq_cst, align 8
  %8 = mul nsw i64 %0, %0
  %9 = getelementptr inbounds i8, ptr %4, i64 16
  %10 = atomicrmw add ptr %9, i64 %8 seq_cst, align 8
  ret void
}